target datalayout = "e-m:e-p270:32:32-p271:32:32-p272:64:64-i64:64-i128:128-f80:128-n8:16:32:64-S128"
target triple = "x86_64-pc-linux-gnu"

%struct.AVFilterPad = type { ptr, i32, i32, %union.anon, ptr, ptr, ptr }
%union.anon = type { ptr }
%union.anon.0 = type { ptr }
%struct.AVOption = type { ptr, ptr, i32, i32, %union.anon.2, double, double, i32, ptr }
%union.anon.2 = type { i64 }
%struct.AVFilterContext = type { ptr, ptr, ptr, ptr, ptr, i32, ptr, ptr, i32, ptr, ptr, i32, i32, ptr, ptr, ptr, ptr, i32, ptr, i32, i32 }
%struct.CCRepackContext = type { ptr, %struct.CCFifo }
%struct.CCFifo = type { ptr, ptr, %struct.AVRational, i32, i32, i32, i32, i32, ptr }
%struct.AVRational = type { i32, i32 }
%struct.AVFilterLink = type { ptr, ptr, ptr, ptr, i32, i32, i32, i32, %struct.AVRational, i32, i32, i32, %struct.AVChannelLayout, %struct.AVRational, ptr, i32, %struct.AVFilterFormatsConfig, %struct.AVFilterFormatsConfig }
%struct.AVChannelLayout = type { i32, i32, %union.anon.1, ptr }
%union.anon.1 = type { i64 }
%struct.AVFilterFormatsConfig = type { ptr, ptr, ptr, ptr, ptr }
%struct.FilterLink = type { %struct.AVFilterLink, ptr, i64, i64, i32, i32, i64, i64, i64, i64, %struct.AVRational, ptr }

@.str = private unnamed_addr constant [9 x i8] c"ccrepack\00", align 1
@.str.1 = private unnamed_addr constant [39 x i8] c"Repack CEA-708 closed caption metadata\00", align 1
@avfilter_vf_ccrepack_inputs = internal constant [1 x %struct.AVFilterPad] [%struct.AVFilterPad { ptr @.str.2, i32 0, i32 0, %union.anon zeroinitializer, ptr @filter_frame, ptr null, ptr @config_input }], align 16
@ff_video_default_filterpad = external constant [1 x %struct.AVFilterPad], align 16
@ff_vf_ccrepack = constant { { ptr, ptr, ptr, ptr, ptr, i32, [4 x i8] }, i8, i8, i8, [5 x i8], ptr, ptr, ptr, %union.anon.0, i32, i32, ptr, ptr } { { ptr, ptr, ptr, ptr, ptr, i32, [4 x i8] } { ptr @.str, ptr @.str.1, ptr @avfilter_vf_ccrepack_inputs, ptr @ff_video_default_filterpad, ptr @ccrepack_class, i32 0, [4 x i8] zeroinitializer }, i8 1, i8 1, i8 0, [5 x i8] zeroinitializer, ptr null, ptr null, ptr @uninit, %union.anon.0 zeroinitializer, i32 64, i32 0, ptr null, ptr null }, align 8
@.str.2 = private unnamed_addr constant [8 x i8] c"default\00", align 1
@.str.3 = private unnamed_addr constant [32 x i8] c"Failure to setup CC FIFO queue\0A\00", align 1
@ccrepack_options = internal constant [1 x %struct.AVOption] zeroinitializer, align 16
@ccrepack_class = internal constant { ptr, ptr, ptr, i32, i32, i32, i32, ptr, ptr, ptr, ptr, i32, [4 x i8] } { ptr @.str, ptr @av_default_item_name, ptr @ccrepack_options, i32 3932772, i32 0, i32 0, i32 7, ptr null, ptr null, ptr null, ptr null, i32 0, [4 x i8] zeroinitializer }, align 8

; Function Attrs: cold nounwind optsize uwtable
define internal void @uninit(ptr noundef %0) #0 {
  %2 = alloca ptr, align 8
  %3 = alloca ptr, align 8
  store ptr %0, ptr %2, align 8, !tbaa !4
  call void @llvm.lifetime.start.p0(i64 8, ptr %3) #5
  %4 = load ptr, ptr %2, align 8, !tbaa !4
  %5 = getelementptr inbounds nuw %struct.AVFilterContext, ptr %4, i32 0, i32 9
  %6 = load ptr, ptr %5, align 8, !tbaa !9
  store ptr %6, ptr %3, align 8, !tbaa !22
  %7 = load ptr, ptr %3, align 8, !tbaa !22
  %8 = getelementptr inbounds nuw %struct.CCRepackContext, ptr %7, i32 0, i32 1
  call void @ff_ccfifo_uninit(ptr noundef %8)
  call void @llvm.lifetime.end.p0(i64 8, ptr %3) #5
  ret void
}

; Function Attrs: nounwind uwtable
define internal i32 @filter_frame(ptr noundef %0, ptr noundef %1) #1 {
  %3 = alloca ptr, align 8
  %4 = alloca ptr, align 8
  %5 = alloca ptr, align 8
  %6 = alloca ptr, align 8
  store ptr %0, ptr %3, align 8, !tbaa !24
  store ptr %1, ptr %4, align 8, !tbaa !26
  call void @llvm.lifetime.start.p0(i64 8, ptr %5) #5
  %7 = load ptr, ptr %3, align 8, !tbaa !24
  %8 = getelementptr inbounds nuw %struct.AVFilterLink, ptr %7, i32 0, i32 2
  %9 = load ptr, ptr %8, align 8, !tbaa !28
  %10 = getelementptr inbounds nuw %struct.AVFilterContext, ptr %9, i32 0, i32 9
  %11 = load ptr, ptr %10, align 8, !tbaa !9
  store ptr %11, ptr %5, align 8, !tbaa !22
  call void @llvm.lifetime.start.p0(i64 8, ptr %6) #5
  %12 = load ptr, ptr %3, align 8, !tbaa !24
  %13 = getelementptr inbounds nuw %struct.AVFilterLink, ptr %12, i32 0, i32 2
  %14 = load ptr, ptr %13, align 8, !tbaa !28
  %15 = getelementptr inbounds nuw %struct.AVFilterContext, ptr %14, i32 0, i32 7
  %16 = load ptr, ptr %15, align 8, !tbaa !36
  %17 = getelementptr inbounds ptr, ptr %16, i64 0
  %18 = load ptr, ptr %17, align 8, !tbaa !24
  store ptr %18, ptr %6, align 8, !tbaa !24
  %19 = load ptr, ptr %5, align 8, !tbaa !22
  %20 = getelementptr inbounds nuw %struct.CCRepackContext, ptr %19, i32 0, i32 1
  %21 = load ptr, ptr %4, align 8, !tbaa !26
  %22 = call i32 @ff_ccfifo_extract(ptr noundef %20, ptr noundef %21)
  %23 = load ptr, ptr %5, align 8, !tbaa !22
  %24 = getelementptr inbounds nuw %struct.CCRepackContext, ptr %23, i32 0, i32 1
  %25 = load ptr, ptr %4, align 8, !tbaa !26
  %26 = call i32 @ff_ccfifo_inject(ptr noundef %24, ptr noundef %25)
  %27 = load ptr, ptr %6, align 8, !tbaa !24
  %28 = load ptr, ptr %4, align 8, !tbaa !26
  %29 = call i32 @ff_filter_frame(ptr noundef %27, ptr noundef %28)
  call void @llvm.lifetime.end.p0(i64 8, ptr %6) #5
  call void @llvm.lifetime.end.p0(i64 8, ptr %5) #5
  ret i32 %29
}

; Function Attrs: nounwind uwtable
define internal i32 @config_input(ptr noundef %0) #1 {
  %2 = alloca i32, align 4
  %3 = alloca ptr, align 8
  %4 = alloca ptr, align 8
  %5 = alloca ptr, align 8
  %6 = alloca i32, align 4
  %7 = alloca i32, align 4
  store ptr %0, ptr %3, align 8, !tbaa !24
  call void @llvm.lifetime.start.p0(i64 8, ptr %4) #5
  %8 = load ptr, ptr %3, align 8, !tbaa !24
  %9 = call ptr @ff_filter_link(ptr noundef %8)
  store ptr %9, ptr %4, align 8, !tbaa !37
  call void @llvm.lifetime.start.p0(i64 8, ptr %5) #5
  %10 = load ptr, ptr %3, align 8, !tbaa !24
  %11 = getelementptr inbounds nuw %struct.AVFilterLink, ptr %10, i32 0, i32 2
  %12 = load ptr, ptr %11, align 8, !tbaa !28
  %13 = getelementptr inbounds nuw %struct.AVFilterContext, ptr %12, i32 0, i32 9
  %14 = load ptr, ptr %13, align 8, !tbaa !9
  store ptr %14, ptr %5, align 8, !tbaa !22
  call void @llvm.lifetime.start.p0(i64 4, ptr %6) #5
  %15 = load ptr, ptr %5, align 8, !tbaa !22
  %16 = getelementptr inbounds nuw %struct.CCRepackContext, ptr %15, i32 0, i32 1
  %17 = load ptr, ptr %4, align 8, !tbaa !37
  %18 = getelementptr inbounds nuw %struct.FilterLink, ptr %17, i32 0, i32 10
  %19 = load ptr, ptr %5, align 8, !tbaa !22
  %20 = load i64, ptr %18, align 8
  %21 = call i32 @ff_ccfifo_init(ptr noundef %16, i64 %20, ptr noundef %19)
  store i32 %21, ptr %6, align 4, !tbaa !39
  %22 = load i32, ptr %6, align 4, !tbaa !39
  %23 = icmp slt i32 %22, 0
  br i1 %23, label %24, label %27

24:                                               ; preds = %1
  %25 = load ptr, ptr %5, align 8, !tbaa !22
  call void (ptr, i32, ptr, ...) @av_log(ptr noundef %25, i32 noundef 16, ptr noundef @.str.3)
  %26 = load i32, ptr %6, align 4, !tbaa !39
  store i32 %26, ptr %2, align 4
  store i32 1, ptr %7, align 4
  br label %28

27:                                               ; preds = %1
  store i32 0, ptr %2, align 4
  store i32 1, ptr %7, align 4
  br label %28

28:                                               ; preds = %27, %24
  call void @llvm.lifetime.end.p0(i64 4, ptr %6) #5
  call void @llvm.lifetime.end.p0(i64 8, ptr %5) #5
  call void @llvm.lifetime.end.p0(i64 8, ptr %4) #5
  %29 = load i32, ptr %2, align 4
  ret i32 %29
}

; Function Attrs: nocallback nofree nosync nounwind willreturn memory(argmem: readwrite)
declare void @llvm.lifetime.start.p0(i64 immarg, ptr captures(none)) #2

declare i32 @ff_ccfifo_extract(ptr noundef, ptr noundef) #3

declare i32 @ff_ccfifo_inject(ptr noundef, ptr noundef) #3

declare i32 @ff_filter_frame(ptr noundef, ptr noundef) #3

; Function Attrs: nocallback nofree nosync nounwind willreturn memory(argmem: readwrite)
declare void @llvm.lifetime.end.p0(i64 immarg, ptr captures(none)) #2

; Function Attrs: inlinehint nounwind uwtable
define internal ptr @ff_filter_link(ptr noundef %0) #4 {
  %2 = alloca ptr, align 8
  store ptr %0, ptr %2, align 8, !tbaa !24
  %3 = load ptr, ptr %2, align 8, !tbaa !24
  ret ptr %3
}

declare i32 @ff_ccfifo_init(ptr noundef, i64, ptr noundef) #3

declare void @av_log(ptr noundef, i32 noundef, ptr noundef, ...) #3

declare ptr @av_default_item_name(ptr noundef) #3

declare void @ff_ccfifo_uninit(ptr noundef) #3


!llvm.module.flags = !{!0, !1, !2, !3}

!0 = !{i32 1, !"wchar_size", i32 4}
!1 = !{i32 8, !"PIC Level", i32 2}
!2 = !{i32 7, !"uwtable", i32 2}
!3 = !{i32 1, !"override-stack-alignment", i32 16}
!4 = !{!5, !5, i64 0}
!5 = !{!"p1 _ZTS15AVFilterContext", !6, i64 0}
!6 = !{!"any pointer", !7, i64 0}
!7 = !{!"omnipotent char", !8, i64 0}
!8 = !{!"Simple C/C++ TBAA"}
!9 = !{!10, !6, i64 72}
!10 = !{!"AVFilterContext", !11, i64 0, !12, i64 8, !13, i64 16, !14, i64 24, !15, i64 32, !17, i64 40, !14, i64 48, !15, i64 56, !17, i64 64, !6, i64 72, !18, i64 80, !17, i64 88, !17, i64 92, !19, i64 96, !13, i64 104, !6, i64 112, !20, i64 120, !17, i64 128, !21, i64 136, !17, i64 144, !17, i64 148}
!11 = !{!"p1 _ZTS7AVClass", !6, i64 0}
!12 = !{!"p1 _ZTS8AVFilter", !6, i64 0}
!13 = !{!"p1 omnipotent char", !6, i64 0}
!14 = !{!"p1 _ZTS11AVFilterPad", !6, i64 0}
!15 = !{!"p2 _ZTS12AVFilterLink", !16, i64 0}
!16 = !{!"any p2 pointer", !6, i64 0}
!17 = !{!"int", !7, i64 0}
!18 = !{!"p1 _ZTS13AVFilterGraph", !6, i64 0}
!19 = !{!"p1 _ZTS15AVFilterCommand", !6, i64 0}
!20 = !{!"p1 double", !6, i64 0}
!21 = !{!"p1 _ZTS11AVBufferRef", !6, i64 0}
!22 = !{!23, !23, i64 0}
!23 = !{!"p1 _ZTS15CCRepackContext", !6, i64 0}
!24 = !{!25, !25, i64 0}
!25 = !{!"p1 _ZTS12AVFilterLink", !6, i64 0}
!26 = !{!27, !27, i64 0}
!27 = !{!"p1 _ZTS7AVFrame", !6, i64 0}
!28 = !{!29, !5, i64 16}
!29 = !{!"AVFilterLink", !5, i64 0, !14, i64 8, !5, i64 16, !14, i64 24, !17, i64 32, !17, i64 36, !17, i64 40, !17, i64 44, !30, i64 48, !17, i64 56, !17, i64 60, !17, i64 64, !31, i64 72, !30, i64 96, !32, i64 104, !17, i64 112, !33, i64 120, !33, i64 160}
!30 = !{!"AVRational", !17, i64 0, !17, i64 4}
!31 = !{!"AVChannelLayout", !17, i64 0, !17, i64 4, !7, i64 8, !6, i64 16}
!32 = !{!"p2 _ZTS15AVFrameSideData", !16, i64 0}
!33 = !{!"AVFilterFormatsConfig", !34, i64 0, !34, i64 8, !35, i64 16, !34, i64 24, !34, i64 32}
!34 = !{!"p1 _ZTS15AVFilterFormats", !6, i64 0}
!35 = !{!"p1 _ZTS22AVFilterChannelLayouts", !6, i64 0}
!36 = !{!10, !15, i64 56}
!37 = !{!38, !38, i64 0}
!38 = !{!"p1 _ZTS10FilterLink", !6, i64 0}
!39 = !{!17, !17, i64 0}
