; ModuleID = 'bench/ffmpeg/original/vf_ccrepack.ll'
source_filename = "bench/ffmpeg/original/vf_ccrepack.ll"
target datalayout = "e-m:e-p270:32:32-p271:32:32-p272:64:64-i64:64-i128:128-f80:128-n8:16:32:64-S128"
target triple = "x86_64-pc-linux-gnu"

%struct.AVFilterPad = type { ptr, i32, i32, %union.anon, ptr, ptr, ptr }
%union.anon = type { ptr }
%union.anon.0 = type { ptr }
%struct.AVOption = type { ptr, ptr, i32, i32, %union.anon.2, double, double, i32, ptr }
%union.anon.2 = type { i64 }

@.str = private unnamed_addr constant [9 x i8] c"ccrepack\00", align 1
@.str.1 = private unnamed_addr constant [39 x i8] c"Repack CEA-708 closed caption metadata\00", align 1
@avfilter_vf_ccrepack_inputs = internal constant [1 x %struct.AVFilterPad] [%struct.AVFilterPad { ptr @.str.2, i32 0, i32 0, %union.anon zeroinitializer, ptr @filter_frame, ptr null, ptr @config_input }], align 16
@ff_video_default_filterpad = external constant [1 x %struct.AVFilterPad], align 16
@ff_vf_ccrepack = local_unnamed_addr constant { { ptr, ptr, ptr, ptr, ptr, i32, [4 x i8] }, i8, i8, i8, [5 x i8], ptr, ptr, ptr, %union.anon.0, i32, i32, ptr, ptr } { { ptr, ptr, ptr, ptr, ptr, i32, [4 x i8] } { ptr @.str, ptr @.str.1, ptr @avfilter_vf_ccrepack_inputs, ptr @ff_video_default_filterpad, ptr @ccrepack_class, i32 0, [4 x i8] zeroinitializer }, i8 1, i8 1, i8 0, [5 x i8] zeroinitializer, ptr null, ptr null, ptr @uninit, %union.anon.0 zeroinitializer, i32 64, i32 0, ptr null, ptr null }, align 8
@.str.2 = private unnamed_addr constant [8 x i8] c"default\00", align 1
@.str.3 = private unnamed_addr constant [32 x i8] c"Failure to setup CC FIFO queue\0A\00", align 1
@ccrepack_options = internal constant [1 x %struct.AVOption] zeroinitializer, align 16
@ccrepack_class = internal constant { ptr, ptr, ptr, i32, i32, i32, i32, ptr, ptr, ptr, ptr, i32, [4 x i8] } { ptr @.str, ptr @av_default_item_name, ptr @ccrepack_options, i32 3932772, i32 0, i32 0, i32 7, ptr null, ptr null, ptr null, ptr null, i32 0, [4 x i8] zeroinitializer }, align 8

; Function Attrs: cold nounwind optsize uwtable
define internal void @uninit(ptr noundef readonly captures(none) %0) #0 {
  %2 = getelementptr inbounds nuw i8, ptr %0, i64 72
  %3 = load ptr, ptr %2, align 8, !tbaa !4
  %4 = getelementptr inbounds nuw i8, ptr %3, i64 8
  tail call void @ff_ccfifo_uninit(ptr noundef nonnull %4) #3
  ret void
}

; Function Attrs: nounwind uwtable
define internal i32 @filter_frame(ptr noundef readonly captures(none) %0, ptr noundef %1) #1 {
  %3 = getelementptr inbounds nuw i8, ptr %0, i64 16
  %4 = load ptr, ptr %3, align 8, !tbaa !20
  %5 = getelementptr inbounds nuw i8, ptr %4, i64 72
  %6 = load ptr, ptr %5, align 8, !tbaa !4
  %7 = getelementptr inbounds nuw i8, ptr %4, i64 56
  %8 = load ptr, ptr %7, align 8, !tbaa !29
  %9 = load ptr, ptr %8, align 8, !tbaa !30
  %10 = getelementptr inbounds nuw i8, ptr %6, i64 8
  %11 = tail call i32 @ff_ccfifo_extract(ptr noundef nonnull %10, ptr noundef %1) #3
  %12 = tail call i32 @ff_ccfifo_inject(ptr noundef nonnull %10, ptr noundef %1) #3
  %13 = tail call i32 @ff_filter_frame(ptr noundef %9, ptr noundef %1) #3
  ret i32 %13
}

; Function Attrs: nounwind uwtable
define internal range(i32 -2147483648, 1) i32 @config_input(ptr noundef readonly captures(none) %0) #1 {
  %2 = getelementptr inbounds nuw i8, ptr %0, i64 16
  %3 = load ptr, ptr %2, align 8, !tbaa !20
  %4 = getelementptr inbounds nuw i8, ptr %3, i64 72
  %5 = load ptr, ptr %4, align 8, !tbaa !4
  %6 = getelementptr inbounds nuw i8, ptr %5, i64 8
  %7 = getelementptr inbounds nuw i8, ptr %0, i64 264
  %8 = load i64, ptr %7, align 8
  %9 = tail call i32 @ff_ccfifo_init(ptr noundef nonnull %6, i64 %8, ptr noundef %5) #3
  %10 = icmp slt i32 %9, 0
  br i1 %10, label %11, label %12

11:                                               ; preds = %1
  tail call void (ptr, i32, ptr, ...) @av_log(ptr noundef nonnull %5, i32 noundef 16, ptr noundef nonnull @.str.3) #3
  br label %12

12:                                               ; preds = %1, %11
  %.0 = phi i32 [ %9, %11 ], [ 0, %1 ]
  ret i32 %.0
}

declare i32 @ff_ccfifo_extract(ptr noundef, ptr noundef) local_unnamed_addr #2

declare i32 @ff_ccfifo_inject(ptr noundef, ptr noundef) local_unnamed_addr #2

declare i32 @ff_filter_frame(ptr noundef, ptr noundef) local_unnamed_addr #2

declare i32 @ff_ccfifo_init(ptr noundef, i64, ptr noundef) local_unnamed_addr #2

declare void @av_log(ptr noundef, i32 noundef, ptr noundef, ...) local_unnamed_addr #2

declare ptr @av_default_item_name(ptr noundef) #2

declare void @ff_ccfifo_uninit(ptr noundef) local_unnamed_addr #2


!llvm.module.flags = !{!0, !1, !2, !3}

!0 = !{i32 1, !"wchar_size", i32 4}
!1 = !{i32 8, !"PIC Level", i32 2}
!2 = !{i32 7, !"uwtable", i32 2}
!3 = !{i32 1, !"override-stack-alignment", i32 16}
!4 = !{!5, !7, i64 72}
!5 = !{!"AVFilterContext", !6, i64 0, !10, i64 8, !11, i64 16, !12, i64 24, !13, i64 32, !15, i64 40, !12, i64 48, !13, i64 56, !15, i64 64, !7, i64 72, !16, i64 80, !15, i64 88, !15, i64 92, !17, i64 96, !11, i64 104, !7, i64 112, !18, i64 120, !15, i64 128, !19, i64 136, !15, i64 144, !15, i64 148}
!6 = !{!"p1 _ZTS7AVClass", !7, i64 0}
!7 = !{!"any pointer", !8, i64 0}
!8 = !{!"omnipotent char", !9, i64 0}
!9 = !{!"Simple C/C++ TBAA"}
!10 = !{!"p1 _ZTS8AVFilter", !7, i64 0}
!11 = !{!"p1 omnipotent char", !7, i64 0}
!12 = !{!"p1 _ZTS11AVFilterPad", !7, i64 0}
!13 = !{!"p2 _ZTS12AVFilterLink", !14, i64 0}
!14 = !{!"any p2 pointer", !7, i64 0}
!15 = !{!"int", !8, i64 0}
!16 = !{!"p1 _ZTS13AVFilterGraph", !7, i64 0}
!17 = !{!"p1 _ZTS15AVFilterCommand", !7, i64 0}
!18 = !{!"p1 double", !7, i64 0}
!19 = !{!"p1 _ZTS11AVBufferRef", !7, i64 0}
!20 = !{!21, !22, i64 16}
!21 = !{!"AVFilterLink", !22, i64 0, !12, i64 8, !22, i64 16, !12, i64 24, !15, i64 32, !15, i64 36, !15, i64 40, !15, i64 44, !23, i64 48, !15, i64 56, !15, i64 60, !15, i64 64, !24, i64 72, !23, i64 96, !25, i64 104, !15, i64 112, !26, i64 120, !26, i64 160}
!22 = !{!"p1 _ZTS15AVFilterContext", !7, i64 0}
!23 = !{!"AVRational", !15, i64 0, !15, i64 4}
!24 = !{!"AVChannelLayout", !15, i64 0, !15, i64 4, !8, i64 8, !7, i64 16}
!25 = !{!"p2 _ZTS15AVFrameSideData", !14, i64 0}
!26 = !{!"AVFilterFormatsConfig", !27, i64 0, !27, i64 8, !28, i64 16, !27, i64 24, !27, i64 32}
!27 = !{!"p1 _ZTS15AVFilterFormats", !7, i64 0}
!28 = !{!"p1 _ZTS22AVFilterChannelLayouts", !7, i64 0}
!29 = !{!5, !13, i64 56}
!30 = !{!31, !31, i64 0}
!31 = !{!"p1 _ZTS12AVFilterLink", !7, i64 0}
